target datalayout = "e-m:e-p270:32:32-p271:32:32-p272:64:64-i64:64-i128:128-f80:128-n8:16:32:64-S128"
target triple = "x86_64-pc-linux-gnu"

%class.btCollisionDispatcher = type { %class.btDispatcher, i32, [4 x i8], %class.btAlignedObjectArray, ptr, ptr, ptr, [36 x [36 x ptr]], [36 x [36 x ptr]], ptr }
%class.btDispatcher = type { ptr }
%class.btAlignedObjectArray = type <{ [4 x i8], i32, i32, [4 x i8], ptr, i8, [7 x i8] }>
%class.btPoolAllocator = type <{ i32, i32, i32, [4 x i8], ptr, ptr, %class.btSpinMutex, [4 x i8] }>
%class.btSpinMutex = type { i32 }

; Function Attrs: inlinehint mustprogress nounwind uwtable
define linkonce_odr dso_local void @_Z13btMutexUnlockP11btSpinMutex(ptr noundef %0) #3 comdat {
  %2 = alloca ptr, align 8
  store ptr %0, ptr %2, align 8, !tbaa !137
  ret void
}

; Function Attrs: inlinehint mustprogress nounwind uwtable
define linkonce_odr dso_local void @_Z11btMutexLockP11btSpinMutex(ptr noundef %0) #3 comdat {
  %2 = alloca ptr, align 8
  store ptr %0, ptr %2, align 8, !tbaa !137
  ret void
}

; Function Attrs: mustprogress nounwind uwtable
define linkonce_odr dso_local void @_ZN15btPoolAllocator10freeMemoryEPv(ptr noundef nonnull align 8 dereferenceable(36) %0, ptr noundef %1) #1 comdat align 2 {
  %3 = alloca ptr, align 8
  %4 = alloca ptr, align 8
  store ptr %0, ptr %3, align 8, !tbaa !77
  store ptr %1, ptr %4, align 8, !tbaa !38
  %5 = load ptr, ptr %3, align 8
  %6 = load ptr, ptr %4, align 8, !tbaa !38
  %7 = icmp ne ptr %6, null
  br i1 %7, label %8, label %19

8:                                                ; preds = %2
  %9 = getelementptr inbounds nuw %class.btPoolAllocator, ptr %5, i32 0, i32 6
  call void @_Z11btMutexLockP11btSpinMutex(ptr noundef %9)
  %10 = getelementptr inbounds nuw %class.btPoolAllocator, ptr %5, i32 0, i32 4
  %11 = load ptr, ptr %10, align 8, !tbaa !78
  %12 = load ptr, ptr %4, align 8, !tbaa !38
  store ptr %11, ptr %12, align 8, !tbaa !38
  %13 = load ptr, ptr %4, align 8, !tbaa !38
  %14 = getelementptr inbounds nuw %class.btPoolAllocator, ptr %5, i32 0, i32 4
  store ptr %13, ptr %14, align 8, !tbaa !78
  %15 = getelementptr inbounds nuw %class.btPoolAllocator, ptr %5, i32 0, i32 2
  %16 = load i32, ptr %15, align 8, !tbaa !82
  %17 = add nsw i32 %16, 1
  store i32 %17, ptr %15, align 8, !tbaa !82
  %18 = getelementptr inbounds nuw %class.btPoolAllocator, ptr %5, i32 0, i32 6
  call void @_Z13btMutexUnlockP11btSpinMutex(ptr noundef %18)
  br label %19

19:                                               ; preds = %8, %2
  ret void
}

; Function Attrs: mustprogress nounwind uwtable
define linkonce_odr dso_local noundef zeroext i1 @_ZN15btPoolAllocator8validPtrEPv(ptr noundef nonnull align 8 dereferenceable(36) %0, ptr noundef %1) #1 comdat align 2 {
  %3 = alloca i1, align 1
  %4 = alloca ptr, align 8
  %5 = alloca ptr, align 8
  store ptr %0, ptr %4, align 8, !tbaa !77
  store ptr %1, ptr %5, align 8, !tbaa !38
  %6 = load ptr, ptr %4, align 8
  %7 = load ptr, ptr %5, align 8, !tbaa !38
  %8 = icmp ne ptr %7, null
  br i1 %8, label %9, label %28

9:                                                ; preds = %2
  %10 = load ptr, ptr %5, align 8, !tbaa !38
  %11 = getelementptr inbounds nuw %class.btPoolAllocator, ptr %6, i32 0, i32 5
  %12 = load ptr, ptr %11, align 8, !tbaa !96
  %13 = icmp uge ptr %10, %12
  br i1 %13, label %14, label %27

14:                                               ; preds = %9
  %15 = load ptr, ptr %5, align 8, !tbaa !38
  %16 = getelementptr inbounds nuw %class.btPoolAllocator, ptr %6, i32 0, i32 5
  %17 = load ptr, ptr %16, align 8, !tbaa !96
  %18 = getelementptr inbounds nuw %class.btPoolAllocator, ptr %6, i32 0, i32 1
  %19 = load i32, ptr %18, align 4, !tbaa !97
  %20 = getelementptr inbounds nuw %class.btPoolAllocator, ptr %6, i32 0, i32 0
  %21 = load i32, ptr %20, align 8, !tbaa !98
  %22 = mul nsw i32 %19, %21
  %23 = sext i32 %22 to i64
  %24 = getelementptr inbounds i8, ptr %17, i64 %23
  %25 = icmp ult ptr %15, %24
  br i1 %25, label %26, label %27

26:                                               ; preds = %14
  store i1 true, ptr %3, align 1
  br label %29

27:                                               ; preds = %14, %9
  br label %28

28:                                               ; preds = %27, %2
  store i1 false, ptr %3, align 1
  br label %29

29:                                               ; preds = %28, %26
  %30 = load i1, ptr %3, align 1
  ret i1 %30
}

; Function Attrs: mustprogress uwtable
define dso_local void @_ZN21btCollisionDispatcher22freeCollisionAlgorithmEPv(ptr noundef nonnull align 8 dereferenceable(20816) %0, ptr noundef %1) unnamed_addr #2 align 2 {
  %3 = alloca ptr, align 8
  %4 = alloca ptr, align 8
  store ptr %0, ptr %3, align 8, !tbaa !12
  store ptr %1, ptr %4, align 8, !tbaa !38
  %5 = load ptr, ptr %3, align 8
  %6 = getelementptr inbounds nuw %class.btCollisionDispatcher, ptr %5, i32 0, i32 5
  %7 = load ptr, ptr %6, align 8, !tbaa !27
  %8 = load ptr, ptr %4, align 8, !tbaa !38
  %9 = call noundef zeroext i1 @_ZN15btPoolAllocator8validPtrEPv(ptr noundef nonnull align 8 dereferenceable(36) %7, ptr noundef %8)
  br i1 %9, label %10, label %14

10:                                               ; preds = %2
  %11 = getelementptr inbounds nuw %class.btCollisionDispatcher, ptr %5, i32 0, i32 5
  %12 = load ptr, ptr %11, align 8, !tbaa !27
  %13 = load ptr, ptr %4, align 8, !tbaa !38
  call void @_ZN15btPoolAllocator10freeMemoryEPv(ptr noundef nonnull align 8 dereferenceable(36) %12, ptr noundef %13)
  br label %16

14:                                               ; preds = %2
  %15 = load ptr, ptr %4, align 8, !tbaa !38
  call void @_Z21btAlignedFreeInternalPv(ptr noundef %15)
  br label %16

16:                                               ; preds = %14, %10
  ret void
}