; Function Attrs: mustprogress uwtable
define dso_local void @_ZN21btCollisionDispatcher22freeCollisionAlgorithmEPv(ptr noundef nonnull readonly align 8 captures(none) dereferenceable(20816) %0, ptr noundef %1) unnamed_addr #0 align 2 {
  %3 = getelementptr inbounds nuw i8, ptr %0, i64 56
  %4 = load ptr, ptr %3, align 8, !tbaa !25
  %.not.i = icmp eq ptr %1, null
  br i1 %.not.i, label %_ZN15btPoolAllocator8validPtrEPv.exit, label %5

5:                                                ; preds = %2
  %6 = getelementptr inbounds nuw i8, ptr %4, i64 24
  %7 = load ptr, ptr %6, align 8, !tbaa !90
  %.not7.i = icmp ult ptr %1, %7
  br i1 %.not7.i, label %_ZN15btPoolAllocator8validPtrEPv.exit, label %8

8:                                                ; preds = %5
  %9 = getelementptr inbounds nuw i8, ptr %4, i64 4
  %10 = load i32, ptr %9, align 4, !tbaa !91
  %11 = load i32, ptr %4, align 8, !tbaa !92
  %12 = mul nsw i32 %11, %10
  %13 = sext i32 %12 to i64
  %14 = getelementptr inbounds i8, ptr %7, i64 %13
  %15 = icmp ult ptr %1, %14
  br i1 %15, label %_ZN15btPoolAllocator10freeMemoryEPv.exit, label %_ZN15btPoolAllocator8validPtrEPv.exit

_ZN15btPoolAllocator10freeMemoryEPv.exit:         ; preds = %8
  %16 = getelementptr inbounds nuw i8, ptr %4, i64 16
  %17 = load ptr, ptr %16, align 8, !tbaa !69
  store ptr %17, ptr %1, align 8, !tbaa !73
  store ptr %1, ptr %16, align 8, !tbaa !69
  %18 = getelementptr inbounds nuw i8, ptr %4, i64 8
  %19 = load i32, ptr %18, align 8, !tbaa !74
  %20 = add nsw i32 %19, 1
  store i32 %20, ptr %18, align 8, !tbaa !74
  br label %21

_ZN15btPoolAllocator8validPtrEPv.exit:            ; preds = %8, %5, %2
  tail call void @_Z21btAlignedFreeInternalPv(ptr noundef %1)
  br label %21

21:                                               ; preds = %_ZN15btPoolAllocator8validPtrEPv.exit, %_ZN15btPoolAllocator10freeMemoryEPv.exit
  ret void
}